target datalayout = "e-m:e-p270:32:32-p271:32:32-p272:64:64-i64:64-i128:128-f80:128-n8:16:32:64-S128"
target triple = "x86_64-pc-linux-gnu"

%struct._zval_struct = type { %union._zend_value, %union.anon, %union.anon.2 }
%union._zend_value = type { i64 }
%union.anon = type { i32 }
%union.anon.2 = type { i32 }
%struct._zend_fcall_info = type { i64, %struct._zval_struct, ptr, ptr, ptr, i32, ptr }
%struct._zend_fcall_info_cache = type { ptr, ptr, ptr, ptr, ptr }
%struct.pdo_sqlite_db_handle = type { ptr, %struct.pdo_sqlite_error_info, ptr, ptr }
%struct.pdo_sqlite_error_info = type { ptr, i32, i32, ptr }
%struct.pdo_sqlite_func = type { ptr, %struct._zval_struct, %struct._zval_struct, %struct._zval_struct, i32, ptr, %struct.pdo_sqlite_fci, %struct.pdo_sqlite_fci, %struct.pdo_sqlite_fci }
%struct.pdo_sqlite_fci = type { %struct._zend_fcall_info, %struct._zend_fcall_info_cache }
%struct.pdo_sqlite_collation = type { ptr, ptr, %struct._zval_struct, %struct.pdo_sqlite_fci }

; Function Attrs: nounwind uwtable
define internal void @pdo_sqlite_cleanup_callbacks(ptr noundef %0) #0 {
  %2 = alloca ptr, align 8
  %3 = alloca ptr, align 8
  %4 = alloca ptr, align 8
  %5 = alloca ptr, align 8
  %6 = alloca ptr, align 8
  %7 = alloca ptr, align 8
  %8 = alloca ptr, align 8
  store ptr %0, ptr %6, align 8
  br label %9

9:                                                ; preds = %75, %1
  %10 = load ptr, ptr %6, align 8
  %11 = getelementptr inbounds %struct.pdo_sqlite_db_handle, ptr %10, i32 0, i32 2
  %12 = load ptr, ptr %11, align 8
  %13 = icmp ne ptr %12, null
  br i1 %13, label %14, label %77

14:                                               ; preds = %9
  %15 = load ptr, ptr %6, align 8
  %16 = getelementptr inbounds %struct.pdo_sqlite_db_handle, ptr %15, i32 0, i32 2
  %17 = load ptr, ptr %16, align 8
  store ptr %17, ptr %7, align 8
  %18 = load ptr, ptr %7, align 8
  %19 = getelementptr inbounds %struct.pdo_sqlite_func, ptr %18, i32 0, i32 0
  %20 = load ptr, ptr %19, align 8
  %21 = load ptr, ptr %6, align 8
  %22 = getelementptr inbounds %struct.pdo_sqlite_db_handle, ptr %21, i32 0, i32 2
  store ptr %20, ptr %22, align 8
  %23 = load ptr, ptr %6, align 8
  %24 = getelementptr inbounds %struct.pdo_sqlite_db_handle, ptr %23, i32 0, i32 0
  %25 = load ptr, ptr %24, align 8
  %26 = icmp ne ptr %25, null
  br i1 %26, label %27, label %39

27:                                               ; preds = %14
  %28 = load ptr, ptr %6, align 8
  %29 = getelementptr inbounds %struct.pdo_sqlite_db_handle, ptr %28, i32 0, i32 0
  %30 = load ptr, ptr %29, align 8
  %31 = load ptr, ptr %7, align 8
  %32 = getelementptr inbounds %struct.pdo_sqlite_func, ptr %31, i32 0, i32 5
  %33 = load ptr, ptr %32, align 8
  %34 = load ptr, ptr %7, align 8
  %35 = getelementptr inbounds %struct.pdo_sqlite_func, ptr %34, i32 0, i32 4
  %36 = load i32, ptr %35, align 8
  %37 = load ptr, ptr %7, align 8
  %38 = call i32 @sqlite3_create_function(ptr noundef %30, ptr noundef %33, i32 noundef %36, i32 noundef 1, ptr noundef %37, ptr noundef null, ptr noundef null, ptr noundef null)
  br label %39

39:                                               ; preds = %27, %14
  %40 = load ptr, ptr %7, align 8
  %41 = getelementptr inbounds %struct.pdo_sqlite_func, ptr %40, i32 0, i32 5
  %42 = load ptr, ptr %41, align 8
  call void @_efree(ptr noundef %42)
  %43 = load ptr, ptr %7, align 8
  %44 = getelementptr inbounds %struct.pdo_sqlite_func, ptr %43, i32 0, i32 1
  store ptr %44, ptr %2, align 8
  %45 = load ptr, ptr %2, align 8
  %46 = getelementptr inbounds %struct._zval_struct, ptr %45, i32 0, i32 1
  %47 = load i8, ptr %46, align 8
  %48 = zext i8 %47 to i32
  %49 = icmp eq i32 %48, 0
  br i1 %49, label %53, label %50

50:                                               ; preds = %39
  %51 = load ptr, ptr %7, align 8
  %52 = getelementptr inbounds %struct.pdo_sqlite_func, ptr %51, i32 0, i32 1
  call void @zval_ptr_dtor(ptr noundef %52)
  br label %53

53:                                               ; preds = %50, %39
  %54 = load ptr, ptr %7, align 8
  %55 = getelementptr inbounds %struct.pdo_sqlite_func, ptr %54, i32 0, i32 2
  store ptr %55, ptr %3, align 8
  %56 = load ptr, ptr %3, align 8
  %57 = getelementptr inbounds %struct._zval_struct, ptr %56, i32 0, i32 1
  %58 = load i8, ptr %57, align 8
  %59 = zext i8 %58 to i32
  %60 = icmp eq i32 %59, 0
  br i1 %60, label %64, label %61

61:                                               ; preds = %53
  %62 = load ptr, ptr %7, align 8
  %63 = getelementptr inbounds %struct.pdo_sqlite_func, ptr %62, i32 0, i32 2
  call void @zval_ptr_dtor(ptr noundef %63)
  br label %64

64:                                               ; preds = %61, %53
  %65 = load ptr, ptr %7, align 8
  %66 = getelementptr inbounds %struct.pdo_sqlite_func, ptr %65, i32 0, i32 3
  store ptr %66, ptr %4, align 8
  %67 = load ptr, ptr %4, align 8
  %68 = getelementptr inbounds %struct._zval_struct, ptr %67, i32 0, i32 1
  %69 = load i8, ptr %68, align 8
  %70 = zext i8 %69 to i32
  %71 = icmp eq i32 %70, 0
  br i1 %71, label %75, label %72

72:                                               ; preds = %64
  %73 = load ptr, ptr %7, align 8
  %74 = getelementptr inbounds %struct.pdo_sqlite_func, ptr %73, i32 0, i32 3
  call void @zval_ptr_dtor(ptr noundef %74)
  br label %75

75:                                               ; preds = %72, %64
  %76 = load ptr, ptr %7, align 8
  call void @_efree(ptr noundef %76)
  br label %9

77:                                               ; preds = %9
  br label %78

78:                                               ; preds = %119, %77
  %79 = load ptr, ptr %6, align 8
  %80 = getelementptr inbounds %struct.pdo_sqlite_db_handle, ptr %79, i32 0, i32 3
  %81 = load ptr, ptr %80, align 8
  %82 = icmp ne ptr %81, null
  br i1 %82, label %83, label %121

83:                                               ; preds = %78
  %84 = load ptr, ptr %6, align 8
  %85 = getelementptr inbounds %struct.pdo_sqlite_db_handle, ptr %84, i32 0, i32 3
  %86 = load ptr, ptr %85, align 8
  store ptr %86, ptr %8, align 8
  %87 = load ptr, ptr %8, align 8
  %88 = getelementptr inbounds %struct.pdo_sqlite_collation, ptr %87, i32 0, i32 0
  %89 = load ptr, ptr %88, align 8
  %90 = load ptr, ptr %6, align 8
  %91 = getelementptr inbounds %struct.pdo_sqlite_db_handle, ptr %90, i32 0, i32 3
  store ptr %89, ptr %91, align 8
  %92 = load ptr, ptr %6, align 8
  %93 = getelementptr inbounds %struct.pdo_sqlite_db_handle, ptr %92, i32 0, i32 0
  %94 = load ptr, ptr %93, align 8
  %95 = icmp ne ptr %94, null
  br i1 %95, label %96, label %105

96:                                               ; preds = %83
  %97 = load ptr, ptr %6, align 8
  %98 = getelementptr inbounds %struct.pdo_sqlite_db_handle, ptr %97, i32 0, i32 0
  %99 = load ptr, ptr %98, align 8
  %100 = load ptr, ptr %8, align 8
  %101 = getelementptr inbounds %struct.pdo_sqlite_collation, ptr %100, i32 0, i32 1
  %102 = load ptr, ptr %101, align 8
  %103 = load ptr, ptr %8, align 8
  %104 = call i32 @sqlite3_create_collation(ptr noundef %99, ptr noundef %102, i32 noundef 1, ptr noundef %103, ptr noundef null)
  br label %105

105:                                              ; preds = %96, %83
  %106 = load ptr, ptr %8, align 8
  %107 = getelementptr inbounds %struct.pdo_sqlite_collation, ptr %106, i32 0, i32 1
  %108 = load ptr, ptr %107, align 8
  call void @_efree(ptr noundef %108)
  %109 = load ptr, ptr %8, align 8
  %110 = getelementptr inbounds %struct.pdo_sqlite_collation, ptr %109, i32 0, i32 2
  store ptr %110, ptr %5, align 8
  %111 = load ptr, ptr %5, align 8
  %112 = getelementptr inbounds %struct._zval_struct, ptr %111, i32 0, i32 1
  %113 = load i8, ptr %112, align 8
  %114 = zext i8 %113 to i32
  %115 = icmp eq i32 %114, 0
  br i1 %115, label %119, label %116

116:                                              ; preds = %105
  %117 = load ptr, ptr %8, align 8
  %118 = getelementptr inbounds %struct.pdo_sqlite_collation, ptr %117, i32 0, i32 2
  call void @zval_ptr_dtor(ptr noundef %118)
  br label %119

119:                                              ; preds = %116, %105
  %120 = load ptr, ptr %8, align 8
  call void @_efree(ptr noundef %120)
  br label %78

121:                                              ; preds = %78
  ret void
}