; Function Attrs: nounwind uwtable
define internal fastcc void @pdo_sqlite_cleanup_callbacks(ptr nocapture noundef %0) unnamed_addr #0 {
  %2 = getelementptr inbounds i8, ptr %0, i64 32
  %3 = load ptr, ptr %2, align 8
  %.not39 = icmp eq ptr %3, null
  br i1 %.not39, label %.preheader, label %.lr.ph

.preheader:                                       ; preds = %35, %1
  %4 = getelementptr inbounds i8, ptr %0, i64 40
  %5 = load ptr, ptr %4, align 8
  %.not3640 = icmp eq ptr %5, null
  br i1 %.not3640, label %._crit_edge, label %.lr.ph41

.lr.ph:                                           ; preds = %1, %35
  %6 = phi ptr [ %36, %35 ], [ %3, %1 ]
  %7 = load ptr, ptr %6, align 8
  store ptr %7, ptr %2, align 8
  %8 = load ptr, ptr %0, align 8
  %.not38 = icmp eq ptr %8, null
  br i1 %.not38, label %15, label %9

9:                                                ; preds = %.lr.ph
  %10 = getelementptr inbounds i8, ptr %6, i64 64
  %11 = load ptr, ptr %10, align 8
  %12 = getelementptr inbounds i8, ptr %6, i64 56
  %13 = load i32, ptr %12, align 8
  %14 = tail call i32 @sqlite3_create_function(ptr noundef nonnull %8, ptr noundef %11, i32 noundef %13, i32 noundef 1, ptr noundef nonnull %6, ptr noundef null, ptr noundef null, ptr noundef null) #11
  br label %15

15:                                               ; preds = %9, %.lr.ph
  %16 = getelementptr inbounds i8, ptr %6, i64 64
  %17 = load ptr, ptr %16, align 8
  tail call void @_efree(ptr noundef %17) #11
  %18 = getelementptr inbounds i8, ptr %6, i64 16
  %19 = load i8, ptr %18, align 8
  %20 = icmp eq i8 %19, 0
  br i1 %20, label %23, label %21

21:                                               ; preds = %15
  %22 = getelementptr inbounds i8, ptr %6, i64 8
  tail call void @zval_ptr_dtor(ptr noundef nonnull %22) #11
  br label %23

23:                                               ; preds = %21, %15
  %24 = getelementptr inbounds i8, ptr %6, i64 32
  %25 = load i8, ptr %24, align 8
  %26 = icmp eq i8 %25, 0
  br i1 %26, label %29, label %27

27:                                               ; preds = %23
  %28 = getelementptr inbounds i8, ptr %6, i64 24
  tail call void @zval_ptr_dtor(ptr noundef nonnull %28) #11
  br label %29

29:                                               ; preds = %27, %23
  %30 = getelementptr inbounds i8, ptr %6, i64 48
  %31 = load i8, ptr %30, align 8
  %32 = icmp eq i8 %31, 0
  br i1 %32, label %35, label %33

33:                                               ; preds = %29
  %34 = getelementptr inbounds i8, ptr %6, i64 40
  tail call void @zval_ptr_dtor(ptr noundef nonnull %34) #11
  br label %35

35:                                               ; preds = %33, %29
  tail call void @_efree(ptr noundef nonnull %6) #11
  %36 = load ptr, ptr %2, align 8
  %.not = icmp eq ptr %36, null
  br i1 %.not, label %.preheader, label %.lr.ph

.lr.ph41:                                         ; preds = %.preheader, %52
  %37 = phi ptr [ %53, %52 ], [ %5, %.preheader ]
  %38 = load ptr, ptr %37, align 8
  store ptr %38, ptr %4, align 8
  %39 = load ptr, ptr %0, align 8
  %.not37 = icmp eq ptr %39, null
  br i1 %.not37, label %44, label %40

40:                                               ; preds = %.lr.ph41
  %41 = getelementptr inbounds i8, ptr %37, i64 8
  %42 = load ptr, ptr %41, align 8
  %43 = tail call i32 @sqlite3_create_collation(ptr noundef nonnull %39, ptr noundef %42, i32 noundef 1, ptr noundef nonnull %37, ptr noundef null) #11
  br label %44

44:                                               ; preds = %40, %.lr.ph41
  %45 = getelementptr inbounds i8, ptr %37, i64 8
  %46 = load ptr, ptr %45, align 8
  tail call void @_efree(ptr noundef %46) #11
  %47 = getelementptr inbounds i8, ptr %37, i64 24
  %48 = load i8, ptr %47, align 8
  %49 = icmp eq i8 %48, 0
  br i1 %49, label %52, label %50

50:                                               ; preds = %44
  %51 = getelementptr inbounds i8, ptr %37, i64 16
  tail call void @zval_ptr_dtor(ptr noundef nonnull %51) #11
  br label %52

52:                                               ; preds = %50, %44
  tail call void @_efree(ptr noundef nonnull %37) #11
  %53 = load ptr, ptr %4, align 8
  %.not36 = icmp eq ptr %53, null
  br i1 %.not36, label %._crit_edge, label %.lr.ph41

._crit_edge:                                      ; preds = %52, %.preheader
  ret void
}